; ModuleID = 'source-C-CXX/48/365.cpp'
source_filename = "source-C-CXX/48/365.cpp"
target datalayout = "e-m:e-p270:32:32-p271:32:32-p272:64:64-i64:64-f80:128-n8:16:32:64-S128"
target triple = "x86_64-pc-linux-gnu"

%"class.std::ios_base::Init" = type { i8 }
%"class.std::basic_istream" = type { i32 (...)**, i64, %"class.std::basic_ios" }
%"class.std::basic_ios" = type { %"class.std::ios_base", %"class.std::basic_ostream"*, i8, i8, %"class.std::basic_streambuf"*, %"class.std::ctype"*, %"class.std::num_put"*, %"class.std::num_get"* }
%"class.std::ios_base" = type { i32 (...)**, i64, i64, i32, i32, i32, %"struct.std::ios_base::_Callback_list"*, %"struct.std::ios_base::_Words", [8 x %"struct.std::ios_base::_Words"], i32, %"struct.std::ios_base::_Words"*, %"class.std::locale" }
%"struct.std::ios_base::_Callback_list" = type { %"struct.std::ios_base::_Callback_list"*, void (i32, %"class.std::ios_base"*, i32)*, i32, i32 }
%"struct.std::ios_base::_Words" = type { i8*, i64 }
%"class.std::locale" = type { %"class.std::locale::_Impl"* }
%"class.std::locale::_Impl" = type { i32, %"class.std::locale::facet"**, i64, %"class.std::locale::facet"**, i8** }
%"class.std::locale::facet" = type <{ i32 (...)**, i32, [4 x i8] }>
%"class.std::basic_ostream" = type { i32 (...)**, %"class.std::basic_ios" }
%"class.std::basic_streambuf" = type { i32 (...)**, i8*, i8*, i8*, i8*, i8*, i8*, %"class.std::locale" }
%"class.std::ctype" = type <{ %"class.std::locale::facet.base", [4 x i8], %struct.__locale_struct*, i8, [7 x i8], i32*, i32*, i16*, i8, [256 x i8], [256 x i8], i8, [6 x i8] }>
%"class.std::locale::facet.base" = type <{ i32 (...)**, i32 }>
%struct.__locale_struct = type { [13 x %struct.__locale_data*], i16*, i32*, i32*, [13 x i8*] }
%struct.__locale_data = type opaque
%"class.std::num_put" = type { %"class.std::locale::facet.base", [4 x i8] }
%"class.std::num_get" = type { %"class.std::locale::facet.base", [4 x i8] }

@_ZStL8__ioinit = internal global %"class.std::ios_base::Init" zeroinitializer, align 1
@__dso_handle = external hidden global i8
@_ZSt3cin = external global %"class.std::basic_istream", align 8
@_ZSt4cout = external global %"class.std::basic_ostream", align 8
@llvm.global_ctors = appending global [1 x { i32, void ()*, i8* }] [{ i32, void ()*, i8* } { i32 65535, void ()* @_GLOBAL__sub_I_365.cpp, i8* null }]

declare void @_ZNSt8ios_base4InitC1Ev(%"class.std::ios_base::Init"* nonnull align 1 dereferenceable(1)) unnamed_addr #0

; Function Attrs: nounwind
declare void @_ZNSt8ios_base4InitD1Ev(%"class.std::ios_base::Init"* nonnull align 1 dereferenceable(1)) unnamed_addr #1

; Function Attrs: nofree nounwind
declare i32 @__cxa_atexit(void (i8*)*, i8*, i8*) local_unnamed_addr #2

; Function Attrs: mustprogress norecurse sspstrong uwtable
define dso_local i32 @main() local_unnamed_addr #3 {
  %1 = alloca i8, align 1
  %2 = alloca i8, align 1
  %3 = alloca [501 x i8], align 16
  %4 = getelementptr inbounds [501 x i8], [501 x i8]* %3, i64 0, i64 0
  call void @llvm.lifetime.start.p0i8(i64 501, i8* nonnull %4) #7
  br label %126

5:                                                ; preds = %126
  %6 = trunc i64 %131 to i32
  %7 = icmp ult i32 %6, 2
  br i1 %7, label %134, label %8

8:                                                ; preds = %5
  %9 = add i64 %127, 2
  %10 = and i64 %9, 4294967295
  %11 = and i64 %131, 4294967295
  br label %12

12:                                               ; preds = %8, %122
  %13 = phi i64 [ 0, %8 ], [ %125, %122 ]
  %14 = phi i64 [ 2, %8 ], [ %123, %122 ]
  %15 = add i64 %13, 2
  %16 = add nsw i64 %14, -1
  %17 = and i64 %13, 1
  %18 = icmp eq i64 %13, -1
  %19 = and i64 %15, -2
  %20 = icmp eq i64 %17, 0
  br label %118

21:                                               ; preds = %88, %118
  %22 = phi i32 [ undef, %118 ], [ %113, %88 ]
  %23 = phi i64 [ 0, %118 ], [ %114, %88 ]
  %24 = phi i32 [ 1, %118 ], [ %113, %88 ]
  %25 = phi i32 [ 0, %118 ], [ %115, %88 ]
  br i1 %20, label %37, label %26

26:                                               ; preds = %21
  %27 = add nuw nsw i64 %23, %119
  %28 = getelementptr inbounds [501 x i8], [501 x i8]* %3, i64 0, i64 %27
  %29 = load i8, i8* %28, align 1, !tbaa !5
  %30 = xor i32 %25, -1
  %31 = add nsw i32 %121, %30
  %32 = sext i32 %31 to i64
  %33 = getelementptr inbounds [501 x i8], [501 x i8]* %3, i64 0, i64 %32
  %34 = load i8, i8* %33, align 1, !tbaa !5
  %35 = icmp eq i8 %29, %34
  %36 = select i1 %35, i32 %24, i32 0
  br label %37

37:                                               ; preds = %21, %26
  %38 = phi i32 [ %22, %21 ], [ %36, %26 ]
  %39 = icmp eq i32 %38, 0
  br i1 %39, label %85, label %40

40:                                               ; preds = %37
  %41 = add nuw nsw i64 %16, %119
  %42 = getelementptr inbounds [501 x i8], [501 x i8]* %3, i64 0, i64 %41
  br label %43

43:                                               ; preds = %40, %82
  %44 = phi i64 [ 0, %40 ], [ %83, %82 ]
  %45 = icmp eq i64 %44, %16
  br i1 %45, label %51, label %46

46:                                               ; preds = %43
  %47 = add nuw nsw i64 %44, %119
  %48 = getelementptr inbounds [501 x i8], [501 x i8]* %3, i64 0, i64 %47
  %49 = load i8, i8* %48, align 1, !tbaa !5
  call void @llvm.lifetime.start.p0i8(i64 1, i8* nonnull %1)
  store i8 %49, i8* %1, align 1, !tbaa !5
  %50 = call nonnull align 8 dereferenceable(8) %"class.std::basic_ostream"* @_ZSt16__ostream_insertIcSt11char_traitsIcEERSt13basic_ostreamIT_T0_ES6_PKS3_l(%"class.std::basic_ostream"* nonnull align 8 dereferenceable(8) @_ZSt4cout, i8* nonnull %1, i64 1)
  call void @llvm.lifetime.end.p0i8(i64 1, i8* nonnull %1)
  br label %82

51:                                               ; preds = %43
  %52 = load i8, i8* %42, align 1, !tbaa !5
  call void @llvm.lifetime.start.p0i8(i64 1, i8* nonnull %2)
  store i8 %52, i8* %2, align 1, !tbaa !5
  %53 = call nonnull align 8 dereferenceable(8) %"class.std::basic_ostream"* @_ZSt16__ostream_insertIcSt11char_traitsIcEERSt13basic_ostreamIT_T0_ES6_PKS3_l(%"class.std::basic_ostream"* nonnull align 8 dereferenceable(8) @_ZSt4cout, i8* nonnull %2, i64 1)
  call void @llvm.lifetime.end.p0i8(i64 1, i8* nonnull %2)
  %54 = bitcast %"class.std::basic_ostream"* %53 to i8**
  %55 = load i8*, i8** %54, align 8, !tbaa !8
  %56 = getelementptr i8, i8* %55, i64 -24
  %57 = bitcast i8* %56 to i64*
  %58 = load i64, i64* %57, align 8
  %59 = bitcast %"class.std::basic_ostream"* %53 to i8*
  %60 = add nsw i64 %58, 240
  %61 = getelementptr inbounds i8, i8* %59, i64 %60
  %62 = bitcast i8* %61 to %"class.std::ctype"**
  %63 = load %"class.std::ctype"*, %"class.std::ctype"** %62, align 8, !tbaa !10
  %64 = icmp eq %"class.std::ctype"* %63, null
  br i1 %64, label %133, label %65

65:                                               ; preds = %51
  %66 = getelementptr inbounds %"class.std::ctype", %"class.std::ctype"* %63, i64 0, i32 8
  %67 = load i8, i8* %66, align 8, !tbaa !14
  %68 = icmp eq i8 %67, 0
  br i1 %68, label %72, label %69

69:                                               ; preds = %65
  %70 = getelementptr inbounds %"class.std::ctype", %"class.std::ctype"* %63, i64 0, i32 9, i64 10
  %71 = load i8, i8* %70, align 1, !tbaa !5
  br label %78

72:                                               ; preds = %65
  call void @_ZNKSt5ctypeIcE13_M_widen_initEv(%"class.std::ctype"* nonnull align 8 dereferenceable(570) %63)
  %73 = bitcast %"class.std::ctype"* %63 to i8 (%"class.std::ctype"*, i8)***
  %74 = load i8 (%"class.std::ctype"*, i8)**, i8 (%"class.std::ctype"*, i8)*** %73, align 8, !tbaa !8
  %75 = getelementptr inbounds i8 (%"class.std::ctype"*, i8)*, i8 (%"class.std::ctype"*, i8)** %74, i64 6
  %76 = load i8 (%"class.std::ctype"*, i8)*, i8 (%"class.std::ctype"*, i8)** %75, align 8
  %77 = call signext i8 %76(%"class.std::ctype"* nonnull align 8 dereferenceable(570) %63, i8 signext 10)
  br label %78

78:                                               ; preds = %72, %69
  %79 = phi i8 [ %71, %69 ], [ %77, %72 ]
  %80 = call nonnull align 8 dereferenceable(8) %"class.std::basic_ostream"* @_ZNSo3putEc(%"class.std::basic_ostream"* nonnull align 8 dereferenceable(8) %53, i8 signext %79)
  %81 = call nonnull align 8 dereferenceable(8) %"class.std::basic_ostream"* @_ZNSo5flushEv(%"class.std::basic_ostream"* nonnull align 8 dereferenceable(8) %80)
  br label %82

82:                                               ; preds = %78, %46
  %83 = add nuw nsw i64 %44, 1
  %84 = icmp eq i64 %83, %14
  br i1 %84, label %85, label %43, !llvm.loop !16

85:                                               ; preds = %82, %37
  %86 = add nuw nsw i64 %119, 1
  %87 = icmp eq i64 %86, %11
  br i1 %87, label %122, label %118, !llvm.loop !18

88:                                               ; preds = %118, %88
  %89 = phi i64 [ %114, %88 ], [ 0, %118 ]
  %90 = phi i32 [ %113, %88 ], [ 1, %118 ]
  %91 = phi i32 [ %115, %88 ], [ 0, %118 ]
  %92 = phi i64 [ %116, %88 ], [ %19, %118 ]
  %93 = add nuw nsw i64 %89, %119
  %94 = getelementptr inbounds [501 x i8], [501 x i8]* %3, i64 0, i64 %93
  %95 = load i8, i8* %94, align 1, !tbaa !5
  %96 = xor i32 %91, -1
  %97 = add nsw i32 %121, %96
  %98 = sext i32 %97 to i64
  %99 = getelementptr inbounds [501 x i8], [501 x i8]* %3, i64 0, i64 %98
  %100 = load i8, i8* %99, align 1, !tbaa !5
  %101 = icmp eq i8 %95, %100
  %102 = or i64 %89, 1
  %103 = add nuw nsw i64 %102, %119
  %104 = getelementptr inbounds [501 x i8], [501 x i8]* %3, i64 0, i64 %103
  %105 = load i8, i8* %104, align 1, !tbaa !5
  %106 = sub nuw nsw i32 -2, %91
  %107 = add nsw i32 %106, %121
  %108 = sext i32 %107 to i64
  %109 = getelementptr inbounds [501 x i8], [501 x i8]* %3, i64 0, i64 %108
  %110 = load i8, i8* %109, align 1, !tbaa !5
  %111 = icmp eq i8 %105, %110
  %112 = select i1 %111, i1 %101, i1 false
  %113 = select i1 %112, i32 %90, i32 0
  %114 = add nuw nsw i64 %89, 2
  %115 = add nuw nsw i32 %91, 2
  %116 = add i64 %92, -2
  %117 = icmp eq i64 %116, 0
  br i1 %117, label %21, label %88, !llvm.loop !19

118:                                              ; preds = %12, %85
  %119 = phi i64 [ 1, %12 ], [ %86, %85 ]
  %120 = add nuw nsw i64 %119, %14
  %121 = trunc i64 %120 to i32
  br i1 %18, label %21, label %88

122:                                              ; preds = %85
  %123 = add nuw nsw i64 %14, 1
  %124 = icmp eq i64 %123, %10
  %125 = add i64 %13, 1
  br i1 %124, label %134, label %12, !llvm.loop !20

126:                                              ; preds = %0, %126
  %127 = phi i64 [ 1, %0 ], [ %131, %126 ]
  %128 = tail call i32 @_ZNSi3getEv(%"class.std::basic_istream"* nonnull align 8 dereferenceable(16) @_ZSt3cin)
  %129 = trunc i32 %128 to i8
  %130 = getelementptr inbounds [501 x i8], [501 x i8]* %3, i64 0, i64 %127
  store i8 %129, i8* %130, align 1, !tbaa !5
  %131 = add nuw i64 %127, 1
  %132 = icmp eq i8 %129, 10
  br i1 %132, label %5, label %126, !llvm.loop !21

133:                                              ; preds = %51
  call void @_ZSt16__throw_bad_castv() #8
  unreachable

134:                                              ; preds = %122, %5
  call void @llvm.lifetime.end.p0i8(i64 501, i8* nonnull %4) #7
  ret i32 0
}

; Function Attrs: argmemonly mustprogress nofree nosync nounwind willreturn
declare void @llvm.lifetime.start.p0i8(i64 immarg, i8* nocapture) #4

declare i32 @_ZNSi3getEv(%"class.std::basic_istream"* nonnull align 8 dereferenceable(16)) local_unnamed_addr #0

; Function Attrs: argmemonly mustprogress nofree nosync nounwind willreturn
declare void @llvm.lifetime.end.p0i8(i64 immarg, i8* nocapture) #4

declare nonnull align 8 dereferenceable(8) %"class.std::basic_ostream"* @_ZSt16__ostream_insertIcSt11char_traitsIcEERSt13basic_ostreamIT_T0_ES6_PKS3_l(%"class.std::basic_ostream"* nonnull align 8 dereferenceable(8), i8*, i64) local_unnamed_addr #0

declare nonnull align 8 dereferenceable(8) %"class.std::basic_ostream"* @_ZNSo3putEc(%"class.std::basic_ostream"* nonnull align 8 dereferenceable(8), i8 signext) local_unnamed_addr #0

declare nonnull align 8 dereferenceable(8) %"class.std::basic_ostream"* @_ZNSo5flushEv(%"class.std::basic_ostream"* nonnull align 8 dereferenceable(8)) local_unnamed_addr #0

; Function Attrs: noreturn
declare void @_ZSt16__throw_bad_castv() local_unnamed_addr #5

declare void @_ZNKSt5ctypeIcE13_M_widen_initEv(%"class.std::ctype"* nonnull align 8 dereferenceable(570)) local_unnamed_addr #0

; Function Attrs: sspstrong uwtable
define internal void @_GLOBAL__sub_I_365.cpp() #6 section ".text.startup" {
  tail call void @_ZNSt8ios_base4InitC1Ev(%"class.std::ios_base::Init"* nonnull align 1 dereferenceable(1) @_ZStL8__ioinit)
  %1 = tail call i32 @__cxa_atexit(void (i8*)* bitcast (void (%"class.std::ios_base::Init"*)* @_ZNSt8ios_base4InitD1Ev to void (i8*)*), i8* getelementptr inbounds (%"class.std::ios_base::Init", %"class.std::ios_base::Init"* @_ZStL8__ioinit, i64 0, i32 0), i8* nonnull @__dso_handle) #7
  ret void
}


!llvm.module.flags = !{!0, !1, !2, !3}
!llvm.ident = !{!4}

!0 = !{i32 1, !"wchar_size", i32 4}
!1 = !{i32 7, !"PIC Level", i32 2}
!2 = !{i32 7, !"PIE Level", i32 2}
!3 = !{i32 7, !"uwtable", i32 1}
!4 = !{!"clang version 13.0.0"}
!5 = !{!6, !6, i64 0}
!6 = !{!"omnipotent char", !7, i64 0}
!7 = !{!"Simple C++ TBAA"}
!8 = !{!9, !9, i64 0}
!9 = !{!"vtable pointer", !7, i64 0}
!10 = !{!11, !12, i64 240}
!11 = !{!"_ZTSSt9basic_iosIcSt11char_traitsIcEE", !12, i64 216, !6, i64 224, !13, i64 225, !12, i64 232, !12, i64 240, !12, i64 248, !12, i64 256}
!12 = !{!"any pointer", !6, i64 0}
!13 = !{!"bool", !6, i64 0}
!14 = !{!15, !6, i64 56}
!15 = !{!"_ZTSSt5ctypeIcE", !12, i64 16, !13, i64 24, !12, i64 32, !12, i64 40, !12, i64 48, !6, i64 56, !6, i64 57, !6, i64 313, !6, i64 569}
!16 = distinct !{!16, !17}
!17 = !{!"llvm.loop.mustprogress"}
!18 = distinct !{!18, !17}
!19 = distinct !{!19, !17}
!20 = distinct !{!20, !17}
!21 = distinct !{!21, !17}
